target datalayout = "e-m:e-p270:32:32-p271:32:32-p272:64:64-i64:64-i128:128-f80:128-n8:16:32:64-S128"
target triple = "x86_64-pc-linux-gnu"

%struct.CurrencyNameStruct = type { ptr, ptr, i32, i32 }

; Function Attrs: mustprogress nounwind uwtable
define internal noundef i32 @_ZL22currencyNameComparatorPKvS0_(ptr noundef %0, ptr noundef %1) #0 {
  %3 = alloca i32, align 4
  %4 = alloca ptr, align 8
  %5 = alloca ptr, align 8
  %6 = alloca ptr, align 8
  %7 = alloca ptr, align 8
  %8 = alloca i32, align 4
  %9 = alloca i32, align 4
  store ptr %0, ptr %4, align 8, !tbaa !22
  store ptr %1, ptr %5, align 8, !tbaa !22
  call void @llvm.lifetime.start.p0(i64 8, ptr %6) #12
  %10 = load ptr, ptr %4, align 8, !tbaa !22
  store ptr %10, ptr %6, align 8, !tbaa !22
  call void @llvm.lifetime.start.p0(i64 8, ptr %7) #12
  %11 = load ptr, ptr %5, align 8, !tbaa !22
  store ptr %11, ptr %7, align 8, !tbaa !22
  call void @llvm.lifetime.start.p0(i64 4, ptr %8) #12
  store i32 0, ptr %8, align 4, !tbaa !14
  br label %12

12:                                               ; preds = %72, %2
  %13 = load i32, ptr %8, align 4, !tbaa !14
  %14 = load ptr, ptr %6, align 8, !tbaa !22
  %15 = getelementptr inbounds nuw %struct.CurrencyNameStruct, ptr %14, i32 0, i32 2
  %16 = load i32, ptr %15, align 8, !tbaa !102
  %17 = load ptr, ptr %7, align 8, !tbaa !22
  %18 = getelementptr inbounds nuw %struct.CurrencyNameStruct, ptr %17, i32 0, i32 2
  %19 = load i32, ptr %18, align 8, !tbaa !102
  %20 = icmp slt i32 %16, %19
  br i1 %20, label %21, label %25

21:                                               ; preds = %12
  %22 = load ptr, ptr %6, align 8, !tbaa !22
  %23 = getelementptr inbounds nuw %struct.CurrencyNameStruct, ptr %22, i32 0, i32 2
  %24 = load i32, ptr %23, align 8, !tbaa !102
  br label %29

25:                                               ; preds = %12
  %26 = load ptr, ptr %7, align 8, !tbaa !22
  %27 = getelementptr inbounds nuw %struct.CurrencyNameStruct, ptr %26, i32 0, i32 2
  %28 = load i32, ptr %27, align 8, !tbaa !102
  br label %29

29:                                               ; preds = %25, %21
  %30 = phi i32 [ %24, %21 ], [ %28, %25 ]
  %31 = icmp slt i32 %13, %30
  br i1 %31, label %33, label %32

32:                                               ; preds = %29
  store i32 2, ptr %9, align 4
  br label %75

33:                                               ; preds = %29
  %34 = load ptr, ptr %6, align 8, !tbaa !22
  %35 = getelementptr inbounds nuw %struct.CurrencyNameStruct, ptr %34, i32 0, i32 1
  %36 = load ptr, ptr %35, align 8, !tbaa !101
  %37 = load i32, ptr %8, align 4, !tbaa !14
  %38 = sext i32 %37 to i64
  %39 = getelementptr inbounds i16, ptr %36, i64 %38
  %40 = load i16, ptr %39, align 2, !tbaa !96
  %41 = zext i16 %40 to i32
  %42 = load ptr, ptr %7, align 8, !tbaa !22
  %43 = getelementptr inbounds nuw %struct.CurrencyNameStruct, ptr %42, i32 0, i32 1
  %44 = load ptr, ptr %43, align 8, !tbaa !101
  %45 = load i32, ptr %8, align 4, !tbaa !14
  %46 = sext i32 %45 to i64
  %47 = getelementptr inbounds i16, ptr %44, i64 %46
  %48 = load i16, ptr %47, align 2, !tbaa !96
  %49 = zext i16 %48 to i32
  %50 = icmp slt i32 %41, %49
  br i1 %50, label %51, label %52

51:                                               ; preds = %33
  store i32 -1, ptr %3, align 4
  store i32 1, ptr %9, align 4
  br label %75

52:                                               ; preds = %33
  %53 = load ptr, ptr %6, align 8, !tbaa !22
  %54 = getelementptr inbounds nuw %struct.CurrencyNameStruct, ptr %53, i32 0, i32 1
  %55 = load ptr, ptr %54, align 8, !tbaa !101
  %56 = load i32, ptr %8, align 4, !tbaa !14
  %57 = sext i32 %56 to i64
  %58 = getelementptr inbounds i16, ptr %55, i64 %57
  %59 = load i16, ptr %58, align 2, !tbaa !96
  %60 = zext i16 %59 to i32
  %61 = load ptr, ptr %7, align 8, !tbaa !22
  %62 = getelementptr inbounds nuw %struct.CurrencyNameStruct, ptr %61, i32 0, i32 1
  %63 = load ptr, ptr %62, align 8, !tbaa !101
  %64 = load i32, ptr %8, align 4, !tbaa !14
  %65 = sext i32 %64 to i64
  %66 = getelementptr inbounds i16, ptr %63, i64 %65
  %67 = load i16, ptr %66, align 2, !tbaa !96
  %68 = zext i16 %67 to i32
  %69 = icmp sgt i32 %60, %68
  br i1 %69, label %70, label %71

70:                                               ; preds = %52
  store i32 1, ptr %3, align 4
  store i32 1, ptr %9, align 4
  br label %75

71:                                               ; preds = %52
  br label %72

72:                                               ; preds = %71
  %73 = load i32, ptr %8, align 4, !tbaa !14
  %74 = add nsw i32 %73, 1
  store i32 %74, ptr %8, align 4, !tbaa !14
  br label %12, !llvm.loop !177

75:                                               ; preds = %70, %51, %32
  call void @llvm.lifetime.end.p0(i64 4, ptr %8) #12
  %76 = load i32, ptr %9, align 4
  switch i32 %76, label %97 [
    i32 2, label %77
  ]

77:                                               ; preds = %75
  %78 = load ptr, ptr %6, align 8, !tbaa !22
  %79 = getelementptr inbounds nuw %struct.CurrencyNameStruct, ptr %78, i32 0, i32 2
  %80 = load i32, ptr %79, align 8, !tbaa !102
  %81 = load ptr, ptr %7, align 8, !tbaa !22
  %82 = getelementptr inbounds nuw %struct.CurrencyNameStruct, ptr %81, i32 0, i32 2
  %83 = load i32, ptr %82, align 8, !tbaa !102
  %84 = icmp slt i32 %80, %83
  br i1 %84, label %85, label %86

85:                                               ; preds = %77
  store i32 -1, ptr %3, align 4
  store i32 1, ptr %9, align 4
  br label %97

86:                                               ; preds = %77
  %87 = load ptr, ptr %6, align 8, !tbaa !22
  %88 = getelementptr inbounds nuw %struct.CurrencyNameStruct, ptr %87, i32 0, i32 2
  %89 = load i32, ptr %88, align 8, !tbaa !102
  %90 = load ptr, ptr %7, align 8, !tbaa !22
  %91 = getelementptr inbounds nuw %struct.CurrencyNameStruct, ptr %90, i32 0, i32 2
  %92 = load i32, ptr %91, align 8, !tbaa !102
  %93 = icmp sgt i32 %89, %92
  br i1 %93, label %94, label %95

94:                                               ; preds = %86
  store i32 1, ptr %3, align 4
  store i32 1, ptr %9, align 4
  br label %97

95:                                               ; preds = %86
  br label %96

96:                                               ; preds = %95
  store i32 0, ptr %3, align 4
  store i32 1, ptr %9, align 4
  br label %97

97:                                               ; preds = %96, %94, %85, %75
  call void @llvm.lifetime.end.p0(i64 8, ptr %7) #12
  call void @llvm.lifetime.end.p0(i64 8, ptr %6) #12
  %98 = load i32, ptr %3, align 4
  ret i32 %98
}