; Function Attrs: mustprogress nofree norecurse nosync nounwind willreturn memory(read, inaccessiblemem: none) uwtable
define internal noundef range(i32 -1, 2) i32 @_ZL22currencyNameComparatorPKvS0_(ptr noundef readonly captures(none) %0, ptr noundef readonly captures(none) %1) #15 {
  %3 = getelementptr inbounds nuw i8, ptr %0, i64 16
  %4 = load i32, ptr %3, align 8, !tbaa !77
  %5 = getelementptr inbounds nuw i8, ptr %1, i64 16
  %6 = load i32, ptr %5, align 8, !tbaa !77
  %. = tail call i32 @llvm.smin.i32(i32 %4, i32 %6)
  %.not34 = icmp sgt i32 %., 0
  br i1 %.not34, label %.lr.ph, label %._crit_edge

.lr.ph:                                           ; preds = %2
  %7 = getelementptr inbounds nuw i8, ptr %0, i64 8
  %8 = load ptr, ptr %7, align 8, !tbaa !74
  %9 = getelementptr inbounds nuw i8, ptr %1, i64 8
  %10 = load ptr, ptr %9, align 8, !tbaa !74
  %wide.trip.count = zext nneg i32 %. to i64
  br label %12

11:                                               ; preds = %18
  %indvars.iv.next = add nuw nsw i64 %indvars.iv, 1
  %exitcond.not = icmp eq i64 %indvars.iv.next, %wide.trip.count
  br i1 %exitcond.not, label %._crit_edge, label %12, !llvm.loop !118

12:                                               ; preds = %.lr.ph, %11
  %indvars.iv = phi i64 [ 0, %.lr.ph ], [ %indvars.iv.next, %11 ]
  %13 = getelementptr inbounds nuw i16, ptr %8, i64 %indvars.iv
  %14 = load i16, ptr %13, align 2, !tbaa !31
  %15 = getelementptr inbounds nuw i16, ptr %10, i64 %indvars.iv
  %16 = load i16, ptr %15, align 2, !tbaa !31
  %17 = icmp ult i16 %14, %16
  br i1 %17, label %.thread, label %18

18:                                               ; preds = %12
  %19 = icmp ugt i16 %14, %16
  br i1 %19, label %.thread, label %11

._crit_edge:                                      ; preds = %11, %2
  %20 = icmp slt i32 %4, %6
  br i1 %20, label %.thread, label %21

21:                                               ; preds = %._crit_edge
  %22 = icmp sgt i32 %4, %6
  %.29 = zext i1 %22 to i32
  br label %.thread

.thread:                                          ; preds = %12, %18, %21, %._crit_edge
  %.1 = phi i32 [ -1, %._crit_edge ], [ %.29, %21 ], [ -1, %12 ], [ 1, %18 ]
  ret i32 %.1
}